; Function Attrs: mustprogress nounwind uwtable
define hidden void @_ZN11FileMapInfo13unmap_regionsEPii(ptr nocapture noundef nonnull readonly align 8 dereferenceable(40) %0, ptr nocapture noundef readonly %1, i32 noundef %2) local_unnamed_addr #0 align 2 {
  %4 = icmp sgt i32 %2, 0
  br i1 %4, label %.lr.ph.preheader, label %._crit_edge

.lr.ph.preheader:                                 ; preds = %3
  %wide.trip.count = zext nneg i32 %2 to i64
  br label %.lr.ph

.lr.ph:                                           ; preds = %.lr.ph.preheader, %.lr.ph
  %indvars.iv = phi i64 [ 0, %.lr.ph.preheader ], [ %indvars.iv.next, %.lr.ph ]
  %5 = getelementptr inbounds i32, ptr %1, i64 %indvars.iv
  %6 = load i32, ptr %5, align 4
  tail call void @_ZN11FileMapInfo12unmap_regionEi(ptr noundef nonnull align 8 dereferenceable(40) %0, i32 noundef %6)
  %indvars.iv.next = add nuw nsw i64 %indvars.iv, 1
  %exitcond.not = icmp eq i64 %indvars.iv.next, %wide.trip.count
  br i1 %exitcond.not, label %._crit_edge, label %.lr.ph, !llvm.loop !47

._crit_edge:                                      ; preds = %.lr.ph, %3
  ret void
}